target datalayout = "e-m:e-p270:32:32-p271:32:32-p272:64:64-i64:64-i128:128-f80:128-n8:16:32:64-S128"
target triple = "x86_64-pc-linux-gnu"

%"class.gmx::ISignaller" = type { ptr }
%"class.std::vector" = type { %"struct.std::_Vector_base" }
%"struct.std::_Vector_base" = type { %"struct.std::_Vector_base<std::function<void (long, double)>, std::allocator<std::function<void (long, double)>>>::_Vector_impl" }
%"struct.std::_Vector_base<std::function<void (long, double)>, std::allocator<std::function<void (long, double)>>>::_Vector_impl" = type { %"struct.std::_Vector_base<std::function<void (long, double)>, std::allocator<std::function<void (long, double)>>>::_Vector_impl_data" }
%"struct.std::_Vector_base<std::function<void (long, double)>, std::allocator<std::function<void (long, double)>>>::_Vector_impl_data" = type { ptr, ptr, ptr }
%"class.gmx::LastStepSignaller" = type <{ %"class.gmx::ISignaller", %"class.gmx::INeighborSearchSignallerClient", %"class.std::vector", i64, i8, [7 x i8], ptr, i64, i8, [7 x i8] }>
%"class.gmx::INeighborSearchSignallerClient" = type { ptr }
%"class.std::function" = type { %"class.std::_Function_base", ptr }
%"class.std::_Function_base" = type { %"union.std::_Any_data", ptr }
%"union.std::_Any_data" = type { %"union.std::_Nocopy_types" }
%"union.std::_Nocopy_types" = type { { i64, i64 } }
%"class.__gnu_cxx::__normal_iterator" = type { ptr }
%"class.gmx::StopHandler" = type <{ ptr, %"class.std::vector.2", i8, [7 x i8] }>
%"class.std::vector.2" = type { %"struct.std::_Vector_base.3" }
%"struct.std::_Vector_base.3" = type { %"struct.std::_Vector_base<std::function<gmx::StopSignal ()>, std::allocator<std::function<gmx::StopSignal ()>>>::_Vector_impl" }
%"struct.std::_Vector_base<std::function<gmx::StopSignal ()>, std::allocator<std::function<gmx::StopSignal ()>>>::_Vector_impl" = type { %"struct.std::_Vector_base<std::function<gmx::StopSignal ()>, std::allocator<std::function<gmx::StopSignal ()>>>::_Vector_impl_data" }
%"struct.std::_Vector_base<std::function<gmx::StopSignal ()>, std::allocator<std::function<gmx::StopSignal ()>>>::_Vector_impl_data" = type { ptr, ptr, ptr }
%"class.gmx::SimulationSignal" = type { i8, i8, i8 }

; Function Attrs: mustprogress nounwind uwtable
define linkonce_odr noundef zeroext i1 @_ZNKSt14_Function_base8_M_emptyEv(ptr noundef nonnull align 8 dereferenceable(24) %0) #1 comdat align 2 {
  %2 = alloca ptr, align 8
  store ptr %0, ptr %2, align 8
  %3 = load ptr, ptr %2, align 8
  %4 = getelementptr inbounds %"class.std::_Function_base", ptr %3, i32 0, i32 1
  %5 = load ptr, ptr %4, align 8
  %6 = icmp ne ptr %5, null
  %7 = xor i1 %6, true
  ret i1 %7
}

; Function Attrs: mustprogress nounwind uwtable
define linkonce_odr noundef nonnull align 8 dereferenceable(8) ptr @_ZNK9__gnu_cxx17__normal_iteratorIPKSt8functionIFvldEESt6vectorIS3_SaIS3_EEE4baseEv(ptr noundef nonnull align 8 dereferenceable(8) %0) #1 comdat align 2 {
  %2 = alloca ptr, align 8
  store ptr %0, ptr %2, align 8
  %3 = load ptr, ptr %2, align 8
  %4 = getelementptr inbounds %"class.__gnu_cxx::__normal_iterator", ptr %3, i32 0, i32 0
  ret ptr %4
}

; Function Attrs: mustprogress nounwind uwtable
define linkonce_odr void @_ZN9__gnu_cxx17__normal_iteratorIPKSt8functionIFvldEESt6vectorIS3_SaIS3_EEEC2ERKS5_(ptr noundef nonnull align 8 dereferenceable(8) %0, ptr noundef nonnull align 8 dereferenceable(8) %1) unnamed_addr #1 comdat align 2 {
  %3 = alloca ptr, align 8
  %4 = alloca ptr, align 8
  store ptr %0, ptr %3, align 8
  store ptr %1, ptr %4, align 8
  %5 = load ptr, ptr %3, align 8
  %6 = getelementptr inbounds %"class.__gnu_cxx::__normal_iterator", ptr %5, i32 0, i32 0
  %7 = load ptr, ptr %4, align 8
  %8 = load ptr, ptr %7, align 8
  store ptr %8, ptr %6, align 8
  ret void
}

; Function Attrs: mustprogress nounwind uwtable
define linkonce_odr noundef nonnull align 8 dereferenceable(8) ptr @_ZN9__gnu_cxx17__normal_iteratorIPKSt8functionIFvldEESt6vectorIS3_SaIS3_EEEppEv(ptr noundef nonnull align 8 dereferenceable(8) %0) #1 comdat align 2 {
  %2 = alloca ptr, align 8
  store ptr %0, ptr %2, align 8
  %3 = load ptr, ptr %2, align 8
  %4 = getelementptr inbounds %"class.__gnu_cxx::__normal_iterator", ptr %3, i32 0, i32 0
  %5 = load ptr, ptr %4, align 8
  %6 = getelementptr inbounds %"class.std::function", ptr %5, i32 1
  store ptr %6, ptr %4, align 8
  ret ptr %3
}

; Function Attrs: mustprogress uwtable
define linkonce_odr void @_ZNKSt8functionIFvldEEclEld(ptr noundef nonnull align 8 dereferenceable(32) %0, i64 noundef %1, double noundef %2) #0 comdat align 2 {
  %4 = alloca ptr, align 8
  %5 = alloca i64, align 8
  %6 = alloca double, align 8
  store ptr %0, ptr %4, align 8
  store i64 %1, ptr %5, align 8
  store double %2, ptr %6, align 8
  %7 = load ptr, ptr %4, align 8
  %8 = call noundef zeroext i1 @_ZNKSt14_Function_base8_M_emptyEv(ptr noundef nonnull align 8 dereferenceable(24) %7)
  br i1 %8, label %9, label %10

9:                                                ; preds = %3
  call void @_ZSt25__throw_bad_function_callv() #13
  unreachable

10:                                               ; preds = %3
  %11 = getelementptr inbounds %"class.std::function", ptr %7, i32 0, i32 1
  %12 = load ptr, ptr %11, align 8
  %13 = getelementptr inbounds %"class.std::_Function_base", ptr %7, i32 0, i32 0
  call void %12(ptr noundef nonnull align 8 dereferenceable(16) %13, ptr noundef nonnull align 8 dereferenceable(8) %5, ptr noundef nonnull align 8 dereferenceable(8) %6)
  ret void
}

; Function Attrs: mustprogress nounwind uwtable
define linkonce_odr noundef nonnull align 8 dereferenceable(32) ptr @_ZNK9__gnu_cxx17__normal_iteratorIPKSt8functionIFvldEESt6vectorIS3_SaIS3_EEEdeEv(ptr noundef nonnull align 8 dereferenceable(8) %0) #1 comdat align 2 {
  %2 = alloca ptr, align 8
  store ptr %0, ptr %2, align 8
  %3 = load ptr, ptr %2, align 8
  %4 = getelementptr inbounds %"class.__gnu_cxx::__normal_iterator", ptr %3, i32 0, i32 0
  %5 = load ptr, ptr %4, align 8
  ret ptr %5
}

; Function Attrs: mustprogress nounwind uwtable
define linkonce_odr noundef zeroext i1 @_ZN9__gnu_cxxneIPKSt8functionIFvldEESt6vectorIS3_SaIS3_EEEEbRKNS_17__normal_iteratorIT_T0_EESE_(ptr noundef nonnull align 8 dereferenceable(8) %0, ptr noundef nonnull align 8 dereferenceable(8) %1) #1 comdat {
  %3 = alloca ptr, align 8
  %4 = alloca ptr, align 8
  store ptr %0, ptr %3, align 8
  store ptr %1, ptr %4, align 8
  %5 = load ptr, ptr %3, align 8
  %6 = call noundef nonnull align 8 dereferenceable(8) ptr @_ZNK9__gnu_cxx17__normal_iteratorIPKSt8functionIFvldEESt6vectorIS3_SaIS3_EEE4baseEv(ptr noundef nonnull align 8 dereferenceable(8) %5) #10
  %7 = load ptr, ptr %6, align 8
  %8 = load ptr, ptr %4, align 8
  %9 = call noundef nonnull align 8 dereferenceable(8) ptr @_ZNK9__gnu_cxx17__normal_iteratorIPKSt8functionIFvldEESt6vectorIS3_SaIS3_EEE4baseEv(ptr noundef nonnull align 8 dereferenceable(8) %8) #10
  %10 = load ptr, ptr %9, align 8
  %11 = icmp ne ptr %7, %10
  ret i1 %11
}

; Function Attrs: mustprogress nounwind uwtable
define linkonce_odr ptr @_ZNKSt6vectorISt8functionIFvldEESaIS2_EE3endEv(ptr noundef nonnull align 8 dereferenceable(24) %0) #1 comdat align 2 {
  %2 = alloca %"class.__gnu_cxx::__normal_iterator", align 8
  %3 = alloca ptr, align 8
  store ptr %0, ptr %3, align 8
  %4 = load ptr, ptr %3, align 8
  %5 = getelementptr inbounds %"struct.std::_Vector_base", ptr %4, i32 0, i32 0
  %6 = getelementptr inbounds %"struct.std::_Vector_base<std::function<void (long, double)>, std::allocator<std::function<void (long, double)>>>::_Vector_impl_data", ptr %5, i32 0, i32 1
  call void @_ZN9__gnu_cxx17__normal_iteratorIPKSt8functionIFvldEESt6vectorIS3_SaIS3_EEEC2ERKS5_(ptr noundef nonnull align 8 dereferenceable(8) %2, ptr noundef nonnull align 8 dereferenceable(8) %6) #10
  %7 = getelementptr inbounds %"class.__gnu_cxx::__normal_iterator", ptr %2, i32 0, i32 0
  %8 = load ptr, ptr %7, align 8
  ret ptr %8
}

; Function Attrs: mustprogress nounwind uwtable
define linkonce_odr ptr @_ZNKSt6vectorISt8functionIFvldEESaIS2_EE5beginEv(ptr noundef nonnull align 8 dereferenceable(24) %0) #1 comdat align 2 {
  %2 = alloca %"class.__gnu_cxx::__normal_iterator", align 8
  %3 = alloca ptr, align 8
  store ptr %0, ptr %3, align 8
  %4 = load ptr, ptr %3, align 8
  %5 = getelementptr inbounds %"struct.std::_Vector_base", ptr %4, i32 0, i32 0
  %6 = getelementptr inbounds %"struct.std::_Vector_base<std::function<void (long, double)>, std::allocator<std::function<void (long, double)>>>::_Vector_impl_data", ptr %5, i32 0, i32 0
  call void @_ZN9__gnu_cxx17__normal_iteratorIPKSt8functionIFvldEESt6vectorIS3_SaIS3_EEEC2ERKS5_(ptr noundef nonnull align 8 dereferenceable(8) %2, ptr noundef nonnull align 8 dereferenceable(8) %6) #10
  %7 = getelementptr inbounds %"class.__gnu_cxx::__normal_iterator", ptr %2, i32 0, i32 0
  %8 = load ptr, ptr %7, align 8
  ret ptr %8
}

; Function Attrs: mustprogress nounwind uwtable
define internal noundef i32 @_ZN3gmxL19convertToStopSignalEa(i8 noundef signext %0) #1 {
  %2 = alloca i32, align 4
  %3 = alloca i8, align 1
  store i8 %0, ptr %3, align 1
  %4 = load i8, ptr %3, align 1
  %5 = sext i8 %4 to i32
  %6 = icmp sle i32 %5, -1
  br i1 %6, label %7, label %8

7:                                                ; preds = %1
  store i32 -1, ptr %2, align 4
  br label %14

8:                                                ; preds = %1
  %9 = load i8, ptr %3, align 1
  %10 = sext i8 %9 to i32
  %11 = icmp sge i32 %10, 1
  br i1 %11, label %12, label %13

12:                                               ; preds = %8
  store i32 1, ptr %2, align 4
  br label %14

13:                                               ; preds = %8
  store i32 0, ptr %2, align 4
  br label %14

14:                                               ; preds = %13, %12, %7
  %15 = load i32, ptr %2, align 4
  ret i32 %15
}

; Function Attrs: mustprogress uwtable
define internal void @_ZN3gmxL15runAllCallbacksERKSt6vectorISt8functionIFvldEESaIS3_EEld(ptr noundef nonnull align 8 dereferenceable(24) %0, i64 noundef %1, double noundef %2) #0 {
  %4 = alloca ptr, align 8
  %5 = alloca i64, align 8
  %6 = alloca double, align 8
  %7 = alloca ptr, align 8
  %8 = alloca %"class.__gnu_cxx::__normal_iterator", align 8
  %9 = alloca %"class.__gnu_cxx::__normal_iterator", align 8
  %10 = alloca ptr, align 8
  store ptr %0, ptr %4, align 8
  store i64 %1, ptr %5, align 8
  store double %2, ptr %6, align 8
  %11 = load ptr, ptr %4, align 8
  store ptr %11, ptr %7, align 8
  %12 = load ptr, ptr %7, align 8
  %13 = call ptr @_ZNKSt6vectorISt8functionIFvldEESaIS2_EE5beginEv(ptr noundef nonnull align 8 dereferenceable(24) %12) #10
  %14 = getelementptr inbounds %"class.__gnu_cxx::__normal_iterator", ptr %8, i32 0, i32 0
  store ptr %13, ptr %14, align 8
  %15 = load ptr, ptr %7, align 8
  %16 = call ptr @_ZNKSt6vectorISt8functionIFvldEESaIS2_EE3endEv(ptr noundef nonnull align 8 dereferenceable(24) %15) #10
  %17 = getelementptr inbounds %"class.__gnu_cxx::__normal_iterator", ptr %9, i32 0, i32 0
  store ptr %16, ptr %17, align 8
  br label %18

18:                                               ; preds = %25, %3
  %19 = call noundef zeroext i1 @_ZN9__gnu_cxxneIPKSt8functionIFvldEESt6vectorIS3_SaIS3_EEEEbRKNS_17__normal_iteratorIT_T0_EESE_(ptr noundef nonnull align 8 dereferenceable(8) %8, ptr noundef nonnull align 8 dereferenceable(8) %9) #10
  br i1 %19, label %20, label %27

20:                                               ; preds = %18
  %21 = call noundef nonnull align 8 dereferenceable(32) ptr @_ZNK9__gnu_cxx17__normal_iteratorIPKSt8functionIFvldEESt6vectorIS3_SaIS3_EEEdeEv(ptr noundef nonnull align 8 dereferenceable(8) %8) #10
  store ptr %21, ptr %10, align 8
  %22 = load ptr, ptr %10, align 8
  %23 = load i64, ptr %5, align 8
  %24 = load double, ptr %6, align 8
  call void @_ZNKSt8functionIFvldEEclEld(ptr noundef nonnull align 8 dereferenceable(32) %22, i64 noundef %23, double noundef %24)
  br label %25

25:                                               ; preds = %20
  %26 = call noundef nonnull align 8 dereferenceable(8) ptr @_ZN9__gnu_cxx17__normal_iteratorIPKSt8functionIFvldEESt6vectorIS3_SaIS3_EEEppEv(ptr noundef nonnull align 8 dereferenceable(8) %8) #10
  br label %18

27:                                               ; preds = %18
  ret void
}

; Function Attrs: mustprogress uwtable
define linkonce_odr noundef zeroext i1 @_ZNK3gmx11StopHandler24stoppingAfterCurrentStepEb(ptr noundef nonnull align 8 dereferenceable(40) %0, i1 noundef zeroext %1) #0 comdat align 2 {
  %3 = alloca ptr, align 8
  %4 = alloca i8, align 1
  store ptr %0, ptr %3, align 8
  %5 = zext i1 %1 to i8
  store i8 %5, ptr %4, align 1
  %6 = load ptr, ptr %3, align 8
  %7 = getelementptr inbounds %"class.gmx::StopHandler", ptr %6, i32 0, i32 0
  %8 = load ptr, ptr %7, align 8
  %9 = getelementptr inbounds %"class.gmx::SimulationSignal", ptr %8, i32 0, i32 1
  %10 = load i8, ptr %9, align 1
  %11 = call noundef i32 @_ZN3gmxL19convertToStopSignalEa(i8 noundef signext %10)
  %12 = icmp eq i32 %11, -1
  br i1 %12, label %31, label %13

13:                                               ; preds = %2
  %14 = getelementptr inbounds %"class.gmx::StopHandler", ptr %6, i32 0, i32 0
  %15 = load ptr, ptr %14, align 8
  %16 = getelementptr inbounds %"class.gmx::SimulationSignal", ptr %15, i32 0, i32 1
  %17 = load i8, ptr %16, align 1
  %18 = call noundef i32 @_ZN3gmxL19convertToStopSignalEa(i8 noundef signext %17)
  %19 = icmp eq i32 %18, 1
  br i1 %19, label %20, label %29

20:                                               ; preds = %13
  %21 = load i8, ptr %4, align 1
  %22 = trunc i8 %21 to i1
  br i1 %22, label %27, label %23

23:                                               ; preds = %20
  %24 = getelementptr inbounds %"class.gmx::StopHandler", ptr %6, i32 0, i32 2
  %25 = load i8, ptr %24, align 8
  %26 = trunc i8 %25 to i1
  br label %27

27:                                               ; preds = %23, %20
  %28 = phi i1 [ true, %20 ], [ %26, %23 ]
  br label %29

29:                                               ; preds = %27, %13
  %30 = phi i1 [ false, %13 ], [ %28, %27 ]
  br label %31

31:                                               ; preds = %29, %2
  %32 = phi i1 [ true, %2 ], [ %30, %29 ]
  ret i1 %32
}

; Function Attrs: mustprogress uwtable
define void @_ZN3gmx17LastStepSignaller6signalEld(ptr noundef nonnull align 8 dereferenceable(80) %0, i64 noundef %1, double noundef %2) unnamed_addr #0 align 2 {
  %4 = alloca ptr, align 8
  %5 = alloca i64, align 8
  %6 = alloca double, align 8
  %7 = alloca i8, align 1
  store ptr %0, ptr %4, align 8
  store i64 %1, ptr %5, align 8
  store double %2, ptr %6, align 8
  %8 = load ptr, ptr %4, align 8
  %9 = getelementptr inbounds %"class.gmx::LastStepSignaller", ptr %8, i32 0, i32 4
  %10 = load i8, ptr %9, align 8
  %11 = trunc i8 %10 to i1
  br i1 %11, label %12, label %13

12:                                               ; preds = %3
  br label %38

13:                                               ; preds = %3
  %14 = load i64, ptr %5, align 8
  %15 = getelementptr inbounds %"class.gmx::LastStepSignaller", ptr %8, i32 0, i32 7
  %16 = load i64, ptr %15, align 8
  %17 = icmp eq i64 %14, %16
  %18 = zext i1 %17 to i8
  store i8 %18, ptr %7, align 1
  %19 = getelementptr inbounds %"class.gmx::LastStepSignaller", ptr %8, i32 0, i32 6
  %20 = load ptr, ptr %19, align 8
  %21 = load i8, ptr %7, align 1
  %22 = trunc i8 %21 to i1
  %23 = call noundef zeroext i1 @_ZNK3gmx11StopHandler24stoppingAfterCurrentStepEb(ptr noundef nonnull align 8 dereferenceable(40) %20, i1 noundef zeroext %22)
  %24 = getelementptr inbounds %"class.gmx::LastStepSignaller", ptr %8, i32 0, i32 4
  %25 = zext i1 %23 to i8
  store i8 %25, ptr %24, align 8
  %26 = load i64, ptr %5, align 8
  %27 = getelementptr inbounds %"class.gmx::LastStepSignaller", ptr %8, i32 0, i32 3
  %28 = load i64, ptr %27, align 8
  %29 = icmp eq i64 %26, %28
  br i1 %29, label %34, label %30

30:                                               ; preds = %13
  %31 = getelementptr inbounds %"class.gmx::LastStepSignaller", ptr %8, i32 0, i32 4
  %32 = load i8, ptr %31, align 8
  %33 = trunc i8 %32 to i1
  br i1 %33, label %34, label %38

34:                                               ; preds = %30, %13
  %35 = getelementptr inbounds %"class.gmx::LastStepSignaller", ptr %8, i32 0, i32 2
  %36 = load i64, ptr %5, align 8
  %37 = load double, ptr %6, align 8
  call void @_ZN3gmxL15runAllCallbacksERKSt6vectorISt8functionIFvldEESaIS3_EEld(ptr noundef nonnull align 8 dereferenceable(24) %35, i64 noundef %36, double noundef %37)
  br label %38

38:                                               ; preds = %34, %30, %12
  ret void
}