; Function Attrs: mustprogress uwtable
define void @_ZN3gmx17LastStepSignaller6signalEld(ptr nocapture noundef nonnull align 8 dereferenceable(80) %0, i64 noundef %1, double noundef %2) unnamed_addr #0 align 2 {
  %4 = alloca i64, align 8
  %5 = alloca double, align 8
  %6 = getelementptr inbounds i8, ptr %0, i64 48
  %7 = load i8, ptr %6, align 8
  %8 = trunc i8 %7 to i1
  br i1 %8, label %_ZN3gmxL15runAllCallbacksERKSt6vectorISt8functionIFvldEESaIS3_EEld.exit, label %9

9:                                                ; preds = %3
  %10 = getelementptr inbounds i8, ptr %0, i64 56
  %11 = load ptr, ptr %10, align 8
  %12 = load ptr, ptr %11, align 8
  %13 = getelementptr inbounds i8, ptr %12, i64 1
  %14 = load i8, ptr %13, align 1
  %15 = icmp slt i8 %14, 0
  br i1 %15, label %_ZNK3gmx11StopHandler24stoppingAfterCurrentStepEb.exit.thread, label %16

_ZNK3gmx11StopHandler24stoppingAfterCurrentStepEb.exit.thread: ; preds = %9
  store i8 1, ptr %6, align 8
  br label %29

16:                                               ; preds = %9
  %17 = getelementptr inbounds i8, ptr %0, i64 64
  %18 = load i64, ptr %17, align 8
  %19 = icmp eq i64 %18, %1
  %.not.i.not.i = icmp eq i8 %14, 0
  %brmerge.i = or i1 %.not.i.not.i, %19
  %not..not.i.not.i = xor i1 %.not.i.not.i, true
  br i1 %brmerge.i, label %_ZNK3gmx11StopHandler24stoppingAfterCurrentStepEb.exit, label %20

20:                                               ; preds = %16
  %21 = getelementptr inbounds i8, ptr %11, i64 32
  %22 = load i8, ptr %21, align 8
  %23 = trunc i8 %22 to i1
  br label %_ZNK3gmx11StopHandler24stoppingAfterCurrentStepEb.exit

_ZNK3gmx11StopHandler24stoppingAfterCurrentStepEb.exit: ; preds = %16, %20
  %24 = phi i1 [ %not..not.i.not.i, %16 ], [ %23, %20 ]
  %25 = zext i1 %24 to i8
  store i8 %25, ptr %6, align 8
  %26 = getelementptr inbounds i8, ptr %0, i64 40
  %27 = load i64, ptr %26, align 8
  %28 = icmp eq i64 %27, %1
  %brmerge = or i1 %24, %28
  br i1 %brmerge, label %29, label %_ZN3gmxL15runAllCallbacksERKSt6vectorISt8functionIFvldEESaIS3_EEld.exit

29:                                               ; preds = %_ZNK3gmx11StopHandler24stoppingAfterCurrentStepEb.exit.thread, %_ZNK3gmx11StopHandler24stoppingAfterCurrentStepEb.exit
  %30 = getelementptr inbounds i8, ptr %0, i64 16
  %.val = load ptr, ptr %30, align 8
  %31 = getelementptr inbounds i8, ptr %0, i64 24
  %.val5 = load ptr, ptr %31, align 8
  %.not4.i = icmp eq ptr %.val, %.val5
  br i1 %.not4.i, label %_ZN3gmxL15runAllCallbacksERKSt6vectorISt8functionIFvldEESaIS3_EEld.exit, label %.lr.ph.i

.lr.ph.i:                                         ; preds = %29, %_ZNKSt8functionIFvldEEclEld.exit.i
  %.sroa.01.05.i = phi ptr [ %37, %_ZNKSt8functionIFvldEEclEld.exit.i ], [ %.val, %29 ]
  call void @llvm.lifetime.start.p0(i64 8, ptr nonnull %4)
  call void @llvm.lifetime.start.p0(i64 8, ptr nonnull %5)
  store i64 %1, ptr %4, align 8
  store double %2, ptr %5, align 8
  %32 = getelementptr inbounds i8, ptr %.sroa.01.05.i, i64 16
  %33 = load ptr, ptr %32, align 8
  %.not.i.i.i = icmp eq ptr %33, null
  br i1 %.not.i.i.i, label %34, label %_ZNKSt8functionIFvldEEclEld.exit.i

34:                                               ; preds = %.lr.ph.i
  call void @_ZSt25__throw_bad_function_callv() #14
  unreachable

_ZNKSt8functionIFvldEEclEld.exit.i:               ; preds = %.lr.ph.i
  %35 = getelementptr inbounds i8, ptr %.sroa.01.05.i, i64 24
  %36 = load ptr, ptr %35, align 8
  call void %36(ptr noundef nonnull align 8 dereferenceable(16) %.sroa.01.05.i, ptr noundef nonnull align 8 dereferenceable(8) %4, ptr noundef nonnull align 8 dereferenceable(8) %5)
  call void @llvm.lifetime.end.p0(i64 8, ptr nonnull %4)
  call void @llvm.lifetime.end.p0(i64 8, ptr nonnull %5)
  %37 = getelementptr inbounds i8, ptr %.sroa.01.05.i, i64 32
  %.not.i = icmp eq ptr %37, %.val5
  br i1 %.not.i, label %_ZN3gmxL15runAllCallbacksERKSt6vectorISt8functionIFvldEESaIS3_EEld.exit, label %.lr.ph.i

_ZN3gmxL15runAllCallbacksERKSt6vectorISt8functionIFvldEESaIS3_EEld.exit: ; preds = %_ZNKSt8functionIFvldEEclEld.exit.i, %29, %_ZNK3gmx11StopHandler24stoppingAfterCurrentStepEb.exit, %3
  ret void
}